target datalayout = "e-m:e-p270:32:32-p271:32:32-p272:64:64-i64:64-i128:128-f80:128-n8:16:32:64-S128"
target triple = "x86_64-pc-linux-gnu"

%struct.PyVarObject = type { %struct._object, i64 }
%struct._object = type { %union.anon, ptr }
%union.anon = type { i64 }
%struct.PyCodeLikeObject = type { %struct._object, ptr, i64, i32 }
%struct._typeobject = type { %struct.PyVarObject, ptr, i64, i64, ptr, i64, ptr, ptr, ptr, ptr, ptr, ptr, ptr, ptr, ptr, ptr, ptr, ptr, ptr, i64, ptr, ptr, ptr, ptr, i64, ptr, ptr, ptr, ptr, ptr, ptr, ptr, ptr, ptr, i64, ptr, ptr, ptr, ptr, ptr, ptr, ptr, ptr, ptr, ptr, ptr, i32, ptr, ptr, i8, i16 }

@.str.28 = private unnamed_addr constant [3 x i8] c"Oi\00", align 1
@.str.30 = private unnamed_addr constant [42 x i8] c"../cpython/Modules/_testcapi/monitoring.c\00", align 1
@PyExc_TypeError = external global ptr, align 8
@.str.32 = private unnamed_addr constant [29 x i8] c"expected a code-like, got %s\00", align 1
@.str.37 = private unnamed_addr constant [4 x i8] c"Oii\00", align 1
@_Py_NoneStruct = external global %struct._object, align 8
@.str.38 = private unnamed_addr constant [16 x i8] c"num_events == 2\00", align 1
@__PRETTY_FUNCTION__.enter_scope = private unnamed_addr constant [46 x i8] c"PyObject *enter_scope(PyObject *, PyObject *)\00", align 1

; Function Attrs: inlinehint nounwind uwtable
define internal ptr @_Py_TYPE(ptr noundef %0) #3 {
  %2 = alloca ptr, align 8
  store ptr %0, ptr %2, align 8, !tbaa !3
  %3 = load ptr, ptr %2, align 8, !tbaa !3
  %4 = getelementptr inbounds nuw %struct._object, ptr %3, i32 0, i32 1
  %5 = load ptr, ptr %4, align 8, !tbaa !35
  ret ptr %5
}

; Function Attrs: inlinehint nounwind uwtable
define internal i32 @Py_IS_TYPE(ptr noundef %0, ptr noundef %1) #3 {
  %3 = alloca ptr, align 8
  %4 = alloca ptr, align 8
  store ptr %0, ptr %3, align 8, !tbaa !3
  store ptr %1, ptr %4, align 8, !tbaa !31
  %5 = load ptr, ptr %3, align 8, !tbaa !3
  %6 = call ptr @_Py_TYPE(ptr noundef %5)
  %7 = load ptr, ptr %4, align 8, !tbaa !31
  %8 = icmp eq ptr %6, %7
  %9 = zext i1 %8 to i32
  ret i32 %9
}

; Function Attrs: nounwind uwtable
define internal ptr @enter_scope(ptr noundef %0, ptr noundef %1) #0 {
  %3 = alloca ptr, align 8
  %4 = alloca ptr, align 8
  %5 = alloca ptr, align 8
  %6 = alloca ptr, align 8
  %7 = alloca i32, align 4
  %8 = alloca i32, align 4
  %9 = alloca i64, align 8
  %10 = alloca i32, align 4
  %11 = alloca ptr, align 8
  %12 = alloca [2 x i8], align 1
  store ptr %0, ptr %4, align 8, !tbaa !3
  store ptr %1, ptr %5, align 8, !tbaa !3
  call void @llvm.lifetime.start.p0(i64 8, ptr %6) #6
  call void @llvm.lifetime.start.p0(i64 4, ptr %7) #6
  call void @llvm.lifetime.start.p0(i64 4, ptr %8) #6
  store i32 0, ptr %8, align 4, !tbaa !25
  call void @llvm.lifetime.start.p0(i64 8, ptr %9) #6
  %13 = load ptr, ptr %5, align 8, !tbaa !3
  %14 = call i64 @PyTuple_Size(ptr noundef %13)
  %15 = sub i64 %14, 1
  store i64 %15, ptr %9, align 8, !tbaa !36
  %16 = load i64, ptr %9, align 8, !tbaa !36
  %17 = icmp eq i64 %16, 1
  br i1 %17, label %18, label %24

18:                                               ; preds = %2
  %19 = load ptr, ptr %5, align 8, !tbaa !3
  %20 = call i32 (ptr, ptr, ...) @PyArg_ParseTuple(ptr noundef %19, ptr noundef @.str.28, ptr noundef %6, ptr noundef %7)
  %21 = icmp ne i32 %20, 0
  br i1 %21, label %23, label %22

22:                                               ; preds = %18
  store ptr null, ptr %3, align 8
  store i32 1, ptr %10, align 4
  br label %62

23:                                               ; preds = %18
  br label %36

24:                                               ; preds = %2
  %25 = load i64, ptr %9, align 8, !tbaa !36
  %26 = icmp eq i64 %25, 2
  br i1 %26, label %27, label %28

27:                                               ; preds = %24
  br label %30

28:                                               ; preds = %24
  call void @__assert_fail(ptr noundef @.str.38, ptr noundef @.str.30, i32 noundef 465, ptr noundef @__PRETTY_FUNCTION__.enter_scope) #7
  unreachable

29:                                               ; No predecessors!
  br label %30

30:                                               ; preds = %29, %27
  %31 = load ptr, ptr %5, align 8, !tbaa !3
  %32 = call i32 (ptr, ptr, ...) @PyArg_ParseTuple(ptr noundef %31, ptr noundef @.str.37, ptr noundef %6, ptr noundef %7, ptr noundef %8)
  %33 = icmp ne i32 %32, 0
  br i1 %33, label %35, label %34

34:                                               ; preds = %30
  store ptr null, ptr %3, align 8
  store i32 1, ptr %10, align 4
  br label %62

35:                                               ; preds = %30
  br label %36

36:                                               ; preds = %35, %23
  %37 = load ptr, ptr %6, align 8, !tbaa !3
  %38 = call i32 @Py_IS_TYPE(ptr noundef %37, ptr noundef @PyCodeLike_Type)
  %39 = icmp ne i32 %38, 0
  br i1 %39, label %47, label %40

40:                                               ; preds = %36
  %41 = load ptr, ptr @PyExc_TypeError, align 8, !tbaa !3
  %42 = load ptr, ptr %6, align 8, !tbaa !3
  %43 = call ptr @_Py_TYPE(ptr noundef %42)
  %44 = getelementptr inbounds nuw %struct._typeobject, ptr %43, i32 0, i32 1
  %45 = load ptr, ptr %44, align 8, !tbaa !37
  %46 = call ptr (ptr, ptr, ...) @PyErr_Format(ptr noundef %41, ptr noundef @.str.32, ptr noundef %45)
  store ptr null, ptr %3, align 8
  store i32 1, ptr %10, align 4
  br label %62

47:                                               ; preds = %36
  call void @llvm.lifetime.start.p0(i64 8, ptr %11) #6
  %48 = load ptr, ptr %6, align 8, !tbaa !3
  store ptr %48, ptr %11, align 8, !tbaa !9
  call void @llvm.lifetime.start.p0(i64 2, ptr %12) #6
  %49 = load i32, ptr %7, align 4, !tbaa !25
  %50 = trunc i32 %49 to i8
  store i8 %50, ptr %12, align 1, !tbaa !8
  %51 = getelementptr inbounds i8, ptr %12, i64 1
  %52 = load i32, ptr %8, align 4, !tbaa !25
  %53 = trunc i32 %52 to i8
  store i8 %53, ptr %51, align 1, !tbaa !8
  %54 = load ptr, ptr %11, align 8, !tbaa !9
  %55 = getelementptr inbounds nuw %struct.PyCodeLikeObject, ptr %54, i32 0, i32 1
  %56 = load ptr, ptr %55, align 8, !tbaa !10
  %57 = load ptr, ptr %11, align 8, !tbaa !9
  %58 = getelementptr inbounds nuw %struct.PyCodeLikeObject, ptr %57, i32 0, i32 2
  %59 = getelementptr inbounds [2 x i8], ptr %12, i64 0, i64 0
  %60 = load i64, ptr %9, align 8, !tbaa !36
  %61 = call i32 @PyMonitoring_EnterScope(ptr noundef %56, ptr noundef %58, ptr noundef %59, i64 noundef %60)
  store ptr @_Py_NoneStruct, ptr %3, align 8
  store i32 1, ptr %10, align 4
  call void @llvm.lifetime.end.p0(i64 2, ptr %12) #6
  call void @llvm.lifetime.end.p0(i64 8, ptr %11) #6
  br label %62

62:                                               ; preds = %47, %40, %34, %22
  call void @llvm.lifetime.end.p0(i64 8, ptr %9) #6
  call void @llvm.lifetime.end.p0(i64 4, ptr %8) #6
  call void @llvm.lifetime.end.p0(i64 4, ptr %7) #6
  call void @llvm.lifetime.end.p0(i64 8, ptr %6) #6
  %63 = load ptr, ptr %3, align 8
  ret ptr %63
}