; Function Attrs: nounwind uwtable
define internal noundef ptr @enter_scope(ptr readnone captures(none) %0, ptr noundef %1) #0 {
  %3 = alloca ptr, align 8
  %4 = alloca i32, align 4
  %5 = alloca i32, align 4
  %6 = alloca [2 x i8], align 1
  call void @llvm.lifetime.start.p0(i64 8, ptr nonnull %3) #4
  call void @llvm.lifetime.start.p0(i64 4, ptr nonnull %4) #4
  call void @llvm.lifetime.start.p0(i64 4, ptr nonnull %5) #4
  store i32 0, ptr %5, align 4, !tbaa !29
  %7 = tail call i64 @PyTuple_Size(ptr noundef %1) #4
  %8 = add i64 %7, -1
  switch i64 %7, label %11 [
    i64 2, label %9
    i64 3, label %12
  ]

9:                                                ; preds = %2
  %10 = call i32 (ptr, ptr, ...) @PyArg_ParseTuple(ptr noundef %1, ptr noundef nonnull @.str.28, ptr noundef nonnull %3, ptr noundef nonnull %4) #4
  %.not9 = icmp eq i32 %10, 0
  br i1 %.not9, label %32, label %14

11:                                               ; preds = %2
  tail call void @__assert_fail(ptr noundef nonnull @.str.38, ptr noundef nonnull @.str.30, i32 noundef 465, ptr noundef nonnull @__PRETTY_FUNCTION__.enter_scope) #5
  unreachable

12:                                               ; preds = %2
  %13 = call i32 (ptr, ptr, ...) @PyArg_ParseTuple(ptr noundef %1, ptr noundef nonnull @.str.37, ptr noundef nonnull %3, ptr noundef nonnull %4, ptr noundef nonnull %5) #4
  %.not = icmp eq i32 %13, 0
  br i1 %.not, label %32, label %14

14:                                               ; preds = %12, %9
  %15 = load ptr, ptr %3, align 8, !tbaa !32
  %16 = getelementptr i8, ptr %15, i64 8
  %.val11 = load ptr, ptr %16, align 8, !tbaa !14
  %.not12 = icmp eq ptr %.val11, @PyCodeLike_Type
  br i1 %.not12, label %22, label %17

17:                                               ; preds = %14
  %18 = load ptr, ptr @PyExc_TypeError, align 8, !tbaa !32
  %19 = getelementptr inbounds nuw i8, ptr %.val11, i64 24
  %20 = load ptr, ptr %19, align 8, !tbaa !33
  %21 = call ptr (ptr, ptr, ...) @PyErr_Format(ptr noundef %18, ptr noundef nonnull @.str.32, ptr noundef %20) #4
  br label %32

22:                                               ; preds = %14
  call void @llvm.lifetime.start.p0(i64 2, ptr nonnull %6) #4
  %23 = load i32, ptr %4, align 4, !tbaa !29
  %24 = trunc i32 %23 to i8
  store i8 %24, ptr %6, align 1, !tbaa !3
  %25 = getelementptr inbounds nuw i8, ptr %6, i64 1
  %26 = load i32, ptr %5, align 4, !tbaa !29
  %27 = trunc i32 %26 to i8
  store i8 %27, ptr %25, align 1, !tbaa !3
  %28 = getelementptr inbounds nuw i8, ptr %15, i64 16
  %29 = load ptr, ptr %28, align 8, !tbaa !6
  %30 = getelementptr inbounds nuw i8, ptr %15, i64 24
  %31 = call i32 @PyMonitoring_EnterScope(ptr noundef %29, ptr noundef nonnull %30, ptr noundef nonnull %6, i64 noundef %8) #4
  call void @llvm.lifetime.end.p0(i64 2, ptr nonnull %6) #4
  br label %32

32:                                               ; preds = %12, %9, %22, %17
  %.0 = phi ptr [ @_Py_NoneStruct, %22 ], [ null, %17 ], [ null, %9 ], [ null, %12 ]
  call void @llvm.lifetime.end.p0(i64 4, ptr nonnull %5) #4
  call void @llvm.lifetime.end.p0(i64 4, ptr nonnull %4) #4
  call void @llvm.lifetime.end.p0(i64 8, ptr nonnull %3) #4
  ret ptr %.0
}